target datalayout = "e-m:e-p270:32:32-p271:32:32-p272:64:64-i64:64-i128:128-f80:128-n8:16:32:64-S128"
target triple = "x86_64-unknown-linux-gnu"

%"class.absl::lts_20230802::log_internal::NullStream" = type { i8 }
%"class.google::protobuf::MessageLite" = type { ptr, %"class.google::protobuf::internal::InternalMetadata" }
%"class.google::protobuf::internal::InternalMetadata" = type { i64 }

; Function Attrs: mustprogress nounwind uwtable
define linkonce_odr hidden noundef ptr @_ZNK6google8protobuf8internal16InternalMetadata8PtrValueINS0_5ArenaEEEPT_v(ptr noundef nonnull align 8 dereferenceable(8) %this) #4 comdat align 2 {
entry:
  %this.addr = alloca ptr, align 8
  store ptr %this, ptr %this.addr, align 8
  %this1 = load ptr, ptr %this.addr, align 8
  %ptr_ = getelementptr inbounds %"class.google::protobuf::internal::InternalMetadata", ptr %this1, i32 0, i32 0
  %0 = load i64, ptr %ptr_, align 8
  %and = and i64 %0, -2
  %1 = inttoptr i64 %and to ptr
  ret ptr %1
}

; Function Attrs: mustprogress nounwind uwtable
define linkonce_odr hidden noundef ptr @_ZNK6google8protobuf8internal16InternalMetadata8PtrValueINS2_13ContainerBaseEEEPT_v(ptr noundef nonnull align 8 dereferenceable(8) %this) #4 comdat align 2 {
entry:
  %this.addr = alloca ptr, align 8
  store ptr %this, ptr %this.addr, align 8
  %this1 = load ptr, ptr %this.addr, align 8
  %ptr_ = getelementptr inbounds %"class.google::protobuf::internal::InternalMetadata", ptr %this1, i32 0, i32 0
  %0 = load i64, ptr %ptr_, align 8
  %and = and i64 %0, -2
  %1 = inttoptr i64 %and to ptr
  ret ptr %1
}

; Function Attrs: mustprogress nounwind uwtable
define linkonce_odr hidden noundef nonnull align 1 dereferenceable(1) ptr @_ZN4absl12lts_2023080212log_internal10NullStream14InternalStreamEv(ptr noundef nonnull align 1 dereferenceable(1) %this) #4 comdat align 2 {
entry:
  %this.addr = alloca ptr, align 8
  store ptr %this, ptr %this.addr, align 8
  %this1 = load ptr, ptr %this.addr, align 8
  ret ptr %this1
}

; Function Attrs: mustprogress uwtable
define linkonce_odr hidden noundef ptr @_ZNK6google8protobuf11MessageLite8GetArenaEv(ptr noundef nonnull align 8 dereferenceable(16) %this) #5 comdat align 2 {
entry:
  %this.addr.i2 = alloca ptr, align 8
  %this.addr.i.i = alloca ptr, align 8
  %retval.i = alloca ptr, align 8
  %this.addr.i = alloca ptr, align 8
  %this.addr = alloca ptr, align 8
  store ptr %this, ptr %this.addr, align 8
  %this1 = load ptr, ptr %this.addr, align 8
  %_internal_metadata_ = getelementptr inbounds %"class.google::protobuf::MessageLite", ptr %this1, i32 0, i32 1
  store ptr %_internal_metadata_, ptr %this.addr.i, align 8
  %this1.i = load ptr, ptr %this.addr.i, align 8
  store ptr %this1.i, ptr %this.addr.i.i, align 8
  %this1.i.i = load ptr, ptr %this.addr.i.i, align 8
  store ptr %this1.i.i, ptr %this.addr.i2, align 8
  %this1.i3 = load ptr, ptr %this.addr.i2, align 8
  %0 = load i64, ptr %this1.i3, align 8
  %and.i = and i64 %0, 1
  %tobool.i = icmp ne i64 %and.i, 0
  br i1 %tobool.i, label %if.then.i, label %if.else.i

if.then.i:                                        ; preds = %entry
  %call2.i = call noundef ptr @_ZNK6google8protobuf8internal16InternalMetadata8PtrValueINS2_13ContainerBaseEEEPT_v(ptr noundef nonnull align 8 dereferenceable(8) %this1.i)
  %1 = load ptr, ptr %call2.i, align 8
  store ptr %1, ptr %retval.i, align 8
  br label %_ZNK6google8protobuf8internal16InternalMetadata5arenaEv.exit

if.else.i:                                        ; preds = %entry
  %call3.i = call noundef ptr @_ZNK6google8protobuf8internal16InternalMetadata8PtrValueINS0_5ArenaEEEPT_v(ptr noundef nonnull align 8 dereferenceable(8) %this1.i)
  store ptr %call3.i, ptr %retval.i, align 8
  br label %_ZNK6google8protobuf8internal16InternalMetadata5arenaEv.exit

_ZNK6google8protobuf8internal16InternalMetadata5arenaEv.exit: ; preds = %if.else.i, %if.then.i
  %2 = load ptr, ptr %retval.i, align 8
  ret ptr %2
}

; Function Attrs: mustprogress uwtable
define void @_ZNK6google8protobuf10Reflection19SetAllocatedMessageEPNS0_7MessageES3_PKNS0_15FieldDescriptorE(ptr noundef nonnull align 8 dereferenceable(112) %this, ptr noundef %message, ptr noundef %sub_message, ptr noundef %field) #5 align 2 {
entry:
  %this.addr.i = alloca ptr, align 8
  %object.addr.i = alloca ptr, align 8
  %this.addr = alloca ptr, align 8
  %message.addr = alloca ptr, align 8
  %sub_message.addr = alloca ptr, align 8
  %field.addr = alloca ptr, align 8
  %arena = alloca ptr, align 8
  %sub_arena = alloca ptr, align 8
  %ref.tmp = alloca %"class.absl::lts_20230802::log_internal::NullStream", align 1
  %sub_message_copy = alloca ptr, align 8
  store ptr %this, ptr %this.addr, align 8
  store ptr %message, ptr %message.addr, align 8
  store ptr %sub_message, ptr %sub_message.addr, align 8
  store ptr %field, ptr %field.addr, align 8
  %this1 = load ptr, ptr %this.addr, align 8
  %0 = load ptr, ptr %sub_message.addr, align 8
  %cmp = icmp eq ptr %0, null
  br i1 %cmp, label %if.then, label %if.end

if.then:                                          ; preds = %entry
  %1 = load ptr, ptr %message.addr, align 8
  %2 = load ptr, ptr %field.addr, align 8
  call void @_ZNK6google8protobuf10Reflection30UnsafeArenaSetAllocatedMessageEPNS0_7MessageES3_PKNS0_15FieldDescriptorE(ptr noundef nonnull align 8 dereferenceable(112) %this1, ptr noundef %1, ptr noundef null, ptr noundef %2)
  br label %if.end10

if.end:                                           ; preds = %entry
  %3 = load ptr, ptr %message.addr, align 8
  %call = call noundef ptr @_ZNK6google8protobuf11MessageLite8GetArenaEv(ptr noundef nonnull align 8 dereferenceable(16) %3)
  store ptr %call, ptr %arena, align 8
  %4 = load ptr, ptr %sub_message.addr, align 8
  %call2 = call noundef ptr @_ZNK6google8protobuf11MessageLite8GetArenaEv(ptr noundef nonnull align 8 dereferenceable(16) %4)
  store ptr %call2, ptr %sub_arena, align 8
  %5 = load ptr, ptr %arena, align 8
  %6 = load ptr, ptr %sub_arena, align 8
  %cmp3 = icmp eq ptr %5, %6
  br i1 %cmp3, label %if.then4, label %if.end5

if.then4:                                         ; preds = %if.end
  %7 = load ptr, ptr %message.addr, align 8
  %8 = load ptr, ptr %sub_message.addr, align 8
  %9 = load ptr, ptr %field.addr, align 8
  call void @_ZNK6google8protobuf10Reflection30UnsafeArenaSetAllocatedMessageEPNS0_7MessageES3_PKNS0_15FieldDescriptorE(ptr noundef nonnull align 8 dereferenceable(112) %this1, ptr noundef %7, ptr noundef %8, ptr noundef %9)
  br label %if.end10

if.end5:                                          ; preds = %if.end
  %10 = load ptr, ptr %sub_arena, align 8
  %cmp6 = icmp eq ptr %10, null
  br i1 %cmp6, label %if.then7, label %if.else

if.then7:                                         ; preds = %if.end5
  br label %while.cond

while.cond:                                       ; preds = %while.body, %if.then7
  br i1 false, label %while.body, label %while.end

while.body:                                       ; preds = %while.cond
  %call8 = call noundef nonnull align 1 dereferenceable(1) ptr @_ZN4absl12lts_2023080212log_internal10NullStream14InternalStreamEv(ptr noundef nonnull align 1 dereferenceable(1) %ref.tmp)
  br label %while.cond, !llvm.loop !41

while.end:                                        ; preds = %while.cond
  %11 = load ptr, ptr %arena, align 8
  %12 = load ptr, ptr %sub_message.addr, align 8
  store ptr %11, ptr %this.addr.i, align 8
  store ptr %12, ptr %object.addr.i, align 8
  %this1.i = load ptr, ptr %this.addr.i, align 8
  %13 = load ptr, ptr %object.addr.i, align 8
  %cmp.i = icmp ne ptr %13, null
  br i1 %cmp.i, label %if.then.i, label %_ZN6google8protobuf5Arena3OwnINS0_7MessageEEEvPT_.exit

if.then.i:                                        ; preds = %while.end
  %14 = load ptr, ptr %object.addr.i, align 8
  call void @_ZN6google8protobuf8internal15ThreadSafeArena10AddCleanupEPvPFvS3_E(ptr noundef nonnull align 8 dereferenceable(144) %this1.i, ptr noundef %14, ptr noundef @_ZN6google8protobuf8internal19arena_delete_objectINS0_11MessageLiteEEEvPv)
  br label %_ZN6google8protobuf5Arena3OwnINS0_7MessageEEEvPT_.exit

_ZN6google8protobuf5Arena3OwnINS0_7MessageEEEvPT_.exit: ; preds = %if.then.i, %while.end
  %15 = load ptr, ptr %message.addr, align 8
  %16 = load ptr, ptr %sub_message.addr, align 8
  %17 = load ptr, ptr %field.addr, align 8
  call void @_ZNK6google8protobuf10Reflection30UnsafeArenaSetAllocatedMessageEPNS0_7MessageES3_PKNS0_15FieldDescriptorE(ptr noundef nonnull align 8 dereferenceable(112) %this1, ptr noundef %15, ptr noundef %16, ptr noundef %17)
  br label %if.end10

if.else:                                          ; preds = %if.end5
  %18 = load ptr, ptr %message.addr, align 8
  %19 = load ptr, ptr %field.addr, align 8
  %call9 = call noundef ptr @_ZNK6google8protobuf10Reflection14MutableMessageEPNS0_7MessageEPKNS0_15FieldDescriptorEPNS0_14MessageFactoryE(ptr noundef nonnull align 8 dereferenceable(112) %this1, ptr noundef %18, ptr noundef %19, ptr noundef null)
  store ptr %call9, ptr %sub_message_copy, align 8
  %20 = load ptr, ptr %sub_message_copy, align 8
  %21 = load ptr, ptr %sub_message.addr, align 8
  call void @_ZN6google8protobuf7Message8CopyFromERKS1_(ptr noundef nonnull align 8 dereferenceable(16) %20, ptr noundef nonnull align 8 dereferenceable(16) %21)
  br label %if.end10

if.end10:                                         ; preds = %if.else, %_ZN6google8protobuf5Arena3OwnINS0_7MessageEEEvPT_.exit, %if.then4, %if.then
  ret void
}