; Function Attrs: mustprogress uwtable
define void @_ZNK6google8protobuf10Reflection19SetAllocatedMessageEPNS0_7MessageES3_PKNS0_15FieldDescriptorE(ptr noundef nonnull align 8 dereferenceable(112) %this, ptr noundef %message, ptr noundef %sub_message, ptr noundef %field) local_unnamed_addr #4 align 2 {
entry:
  %cmp = icmp eq ptr %sub_message, null
  br i1 %cmp, label %if.then, label %if.end

if.then:                                          ; preds = %entry
  tail call void @_ZNK6google8protobuf10Reflection30UnsafeArenaSetAllocatedMessageEPNS0_7MessageES3_PKNS0_15FieldDescriptorE(ptr noundef nonnull align 8 dereferenceable(112) %this, ptr noundef %message, ptr noundef null, ptr noundef %field)
  br label %if.end10

if.end:                                           ; preds = %entry
  %_internal_metadata_.i = getelementptr inbounds i8, ptr %message, i64 8
  %0 = load i64, ptr %_internal_metadata_.i, align 8
  %and.i.i = and i64 %0, 1
  %tobool.i.not.i = icmp eq i64 %and.i.i, 0
  br i1 %tobool.i.not.i, label %if.else.i.i, label %if.then.i.i

if.then.i.i:                                      ; preds = %if.end
  %and.i1.i = and i64 %0, -2
  %1 = inttoptr i64 %and.i1.i to ptr
  %2 = load ptr, ptr %1, align 8
  br label %_ZNK6google8protobuf11MessageLite8GetArenaEv.exit

if.else.i.i:                                      ; preds = %if.end
  %3 = inttoptr i64 %0 to ptr
  br label %_ZNK6google8protobuf11MessageLite8GetArenaEv.exit

_ZNK6google8protobuf11MessageLite8GetArenaEv.exit: ; preds = %if.then.i.i, %if.else.i.i
  %retval.i.0.i = phi ptr [ %2, %if.then.i.i ], [ %3, %if.else.i.i ]
  %_internal_metadata_.i16 = getelementptr inbounds i8, ptr %sub_message, i64 8
  %4 = load i64, ptr %_internal_metadata_.i16, align 8
  %and.i.i17 = and i64 %4, 1
  %tobool.i.not.i18 = icmp eq i64 %and.i.i17, 0
  br i1 %tobool.i.not.i18, label %if.else.i.i22, label %if.then.i.i19

if.then.i.i19:                                    ; preds = %_ZNK6google8protobuf11MessageLite8GetArenaEv.exit
  %and.i1.i20 = and i64 %4, -2
  %5 = inttoptr i64 %and.i1.i20 to ptr
  %6 = load ptr, ptr %5, align 8
  br label %_ZNK6google8protobuf11MessageLite8GetArenaEv.exit23

if.else.i.i22:                                    ; preds = %_ZNK6google8protobuf11MessageLite8GetArenaEv.exit
  %7 = inttoptr i64 %4 to ptr
  br label %_ZNK6google8protobuf11MessageLite8GetArenaEv.exit23

_ZNK6google8protobuf11MessageLite8GetArenaEv.exit23: ; preds = %if.then.i.i19, %if.else.i.i22
  %retval.i.0.i21 = phi ptr [ %6, %if.then.i.i19 ], [ %7, %if.else.i.i22 ]
  %cmp3 = icmp eq ptr %retval.i.0.i, %retval.i.0.i21
  br i1 %cmp3, label %if.then4, label %if.end5

if.then4:                                         ; preds = %_ZNK6google8protobuf11MessageLite8GetArenaEv.exit23
  tail call void @_ZNK6google8protobuf10Reflection30UnsafeArenaSetAllocatedMessageEPNS0_7MessageES3_PKNS0_15FieldDescriptorE(ptr noundef nonnull align 8 dereferenceable(112) %this, ptr noundef nonnull %message, ptr noundef nonnull %sub_message, ptr noundef %field)
  br label %if.end10

if.end5:                                          ; preds = %_ZNK6google8protobuf11MessageLite8GetArenaEv.exit23
  %cmp6 = icmp eq ptr %retval.i.0.i21, null
  br i1 %cmp6, label %if.then.i, label %if.else

if.then.i:                                        ; preds = %if.end5
  tail call void @_ZN6google8protobuf8internal15ThreadSafeArena10AddCleanupEPvPFvS3_E(ptr noundef nonnull align 8 dereferenceable(144) %retval.i.0.i, ptr noundef nonnull %sub_message, ptr noundef nonnull @_ZN6google8protobuf8internal19arena_delete_objectINS0_11MessageLiteEEEvPv)
  tail call void @_ZNK6google8protobuf10Reflection30UnsafeArenaSetAllocatedMessageEPNS0_7MessageES3_PKNS0_15FieldDescriptorE(ptr noundef nonnull align 8 dereferenceable(112) %this, ptr noundef nonnull %message, ptr noundef nonnull %sub_message, ptr noundef %field)
  br label %if.end10

if.else:                                          ; preds = %if.end5
  %call9 = tail call noundef ptr @_ZNK6google8protobuf10Reflection14MutableMessageEPNS0_7MessageEPKNS0_15FieldDescriptorEPNS0_14MessageFactoryE(ptr noundef nonnull align 8 dereferenceable(112) %this, ptr noundef nonnull %message, ptr noundef %field, ptr noundef null)
  tail call void @_ZN6google8protobuf7Message8CopyFromERKS1_(ptr noundef nonnull align 8 dereferenceable(16) %call9, ptr noundef nonnull align 8 dereferenceable(16) %sub_message)
  br label %if.end10

if.end10:                                         ; preds = %if.else, %if.then.i, %if.then4, %if.then
  ret void
}